; Function Attrs: mustprogress nofree norecurse nosync nounwind willreturn memory(read, inaccessiblemem: none) uwtable
define range(i32 0, 2) i32 @Map_NodeIsVar(ptr noundef %0) local_unnamed_addr #3 {
  %2 = ptrtoint ptr %0 to i64
  %3 = and i64 %2, -2
  %4 = inttoptr i64 %3 to ptr
  %5 = getelementptr inbounds nuw i8, ptr %4, i64 64
  %6 = load ptr, ptr %5, align 8, !tbaa !27
  %7 = icmp eq ptr %6, null
  br i1 %7, label %8, label %13

8:                                                ; preds = %1
  %9 = getelementptr inbounds nuw i8, ptr %4, i64 16
  %10 = load i32, ptr %9, align 8, !tbaa !61
  %11 = icmp sgt i32 %10, -1
  %12 = zext i1 %11 to i32
  br label %13

13:                                               ; preds = %8, %1
  %14 = phi i32 [ 0, %1 ], [ %12, %8 ]
  ret i32 %14
}